target datalayout = "e-m:e-p270:32:32-p271:32:32-p272:64:64-i64:64-i128:128-f80:128-n8:16:32:64-S128"
target triple = "x86_64-pc-linux-gnu"

@.str.3 = private unnamed_addr constant [26 x i8] c"fcntl(F_GETFL) failed: %m\00", align 1
@.str.4 = private unnamed_addr constant [26 x i8] c"fcntl(F_SETFL) failed: %m\00", align 1

; Function Attrs: nounwind uwtable
define dso_local void @fd_set_nonblocking(i32 noundef %0) #0 {
  %2 = alloca i32, align 4
  %3 = alloca i32, align 4
  store i32 %0, ptr %2, align 4
  call void @llvm.lifetime.start.p0(i64 4, ptr %3) #10
  %4 = load i32, ptr %2, align 4
  %5 = call i32 (i32, i32, ...) @fcntl(i32 noundef %4, i32 noundef 3, i32 noundef 0)
  store i32 %5, ptr %3, align 4
  %6 = icmp slt i32 %5, 0
  br i1 %6, label %7, label %9

7:                                                ; preds = %1
  %8 = call i32 (ptr, ...) @error(ptr noundef @.str.3)
  br label %9

9:                                                ; preds = %7, %1
  %10 = load i32, ptr %2, align 4
  %11 = load i32, ptr %3, align 4
  %12 = or i32 %11, 2048
  %13 = call i32 (i32, i32, ...) @fcntl(i32 noundef %10, i32 noundef 4, i32 noundef %12)
  %14 = icmp slt i32 %13, 0
  br i1 %14, label %15, label %17

15:                                               ; preds = %9
  %16 = call i32 (ptr, ...) @error(ptr noundef @.str.4)
  br label %17

17:                                               ; preds = %15, %9
  call void @llvm.lifetime.end.p0(i64 4, ptr %3) #10
  ret void
}